target datalayout = "e-m:e-p270:32:32-p271:32:32-p272:64:64-i64:64-i128:128-f80:128-n8:16:32:64-S128"
target triple = "x86_64-pc-linux-gnu"

%struct.strbuf = type { i64, i64, ptr }
%struct.todo_list = type { %struct.strbuf, ptr, i32, i32, i32, i32, i32 }

@.str.182 = private unnamed_addr constant [2 x i8] c"w\00", align 1
@.str.292 = private unnamed_addr constant [4 x i8] c"%d\0A\00", align 1
@rebase_path_msgtotal.ret = internal global ptr null, align 8
@.str.468 = private unnamed_addr constant [17 x i8] c"rebase-merge/end\00", align 1

; Function Attrs: nounwind uwtable
define internal ptr @rebase_path_msgtotal() #0 {
  %1 = load ptr, ptr @rebase_path_msgtotal.ret, align 8, !tbaa !4
  %2 = icmp ne ptr %1, null
  br i1 %2, label %5, label %3

3:                                                ; preds = %0
  %4 = call ptr (ptr, ...) @git_pathdup(ptr noundef @.str.468)
  store ptr %4, ptr @rebase_path_msgtotal.ret, align 8, !tbaa !4
  br label %5

5:                                                ; preds = %3, %0
  %6 = load ptr, ptr @rebase_path_msgtotal.ret, align 8, !tbaa !4
  ret ptr %6
}

; Function Attrs: nounwind uwtable
define internal void @todo_list_write_total_nr(ptr noundef %0) #0 {
  %2 = alloca ptr, align 8
  %3 = alloca ptr, align 8
  store ptr %0, ptr %2, align 8, !tbaa !136
  call void @llvm.lifetime.start.p0(i64 8, ptr %3) #11
  %4 = call ptr @rebase_path_msgtotal()
  %5 = call ptr @fopen_or_warn(ptr noundef %4, ptr noundef @.str.182)
  store ptr %5, ptr %3, align 8, !tbaa !178
  %6 = load ptr, ptr %3, align 8, !tbaa !178
  %7 = icmp ne ptr %6, null
  br i1 %7, label %8, label %16

8:                                                ; preds = %1
  %9 = load ptr, ptr %3, align 8, !tbaa !178
  %10 = load ptr, ptr %2, align 8, !tbaa !136
  %11 = getelementptr inbounds nuw %struct.todo_list, ptr %10, i32 0, i32 6
  %12 = load i32, ptr %11, align 8, !tbaa !150
  %13 = call i32 (ptr, ptr, ...) @fprintf(ptr noundef %9, ptr noundef @.str.292, i32 noundef %12) #11
  %14 = load ptr, ptr %3, align 8, !tbaa !178
  %15 = call i32 @fclose(ptr noundef %14)
  br label %16

16:                                               ; preds = %8, %1
  call void @llvm.lifetime.end.p0(i64 8, ptr %3) #11
  ret void
}