; Function Attrs: nounwind uwtable
define internal fastcc void @todo_list_write_total_nr(ptr noundef nonnull readonly captures(none) %0) unnamed_addr #0 {
  %2 = load ptr, ptr @rebase_path_msgtotal.ret, align 8, !tbaa !4
  %.not.i = icmp eq ptr %2, null
  br i1 %.not.i, label %3, label %rebase_path_msgtotal.exit

3:                                                ; preds = %1
  %4 = tail call ptr (ptr, ...) @git_pathdup(ptr noundef nonnull @.str.468)
  store ptr %4, ptr @rebase_path_msgtotal.ret, align 8, !tbaa !4
  br label %rebase_path_msgtotal.exit

rebase_path_msgtotal.exit:                        ; preds = %1, %3
  %5 = phi ptr [ %4, %3 ], [ %2, %1 ]
  %6 = tail call ptr @fopen_or_warn(ptr noundef %5, ptr noundef nonnull @.str.182) #20
  %.not = icmp eq ptr %6, null
  br i1 %.not, label %12, label %7

7:                                                ; preds = %rebase_path_msgtotal.exit
  %8 = getelementptr inbounds nuw i8, ptr %0, i64 48
  %9 = load i32, ptr %8, align 8, !tbaa !118
  %10 = tail call i32 (ptr, ptr, ...) @fprintf(ptr noundef nonnull %6, ptr noundef nonnull @.str.292, i32 noundef %9) #20
  %11 = tail call i32 @fclose(ptr noundef nonnull %6)
  br label %12

12:                                               ; preds = %7, %rebase_path_msgtotal.exit
  ret void
}